target datalayout = "e-m:e-p270:32:32-p271:32:32-p272:64:64-i64:64-i128:128-f80:128-n8:16:32:64-S128"
target triple = "x86_64-pc-linux-gnu"

%class.mmu_t = type { %"class.std::map", %"class.std::vector", ptr, ptr, %class.memtracer_list_t, i64, i16, i64, [1024 x %struct.icache_entry_t], [256 x %struct.tlb_entry_t], [256 x i64], [256 x i64], [256 x i64], i8, i8, i8, ptr }
%"class.std::map" = type { %"class.std::_Rb_tree" }
%"class.std::_Rb_tree" = type { %"struct.std::_Rb_tree<unsigned long, std::pair<const unsigned long, unsigned long>, std::_Select1st<std::pair<const unsigned long, unsigned long>>, std::less<unsigned long>>::_Rb_tree_impl" }
%"struct.std::_Rb_tree<unsigned long, std::pair<const unsigned long, unsigned long>, std::_Select1st<std::pair<const unsigned long, unsigned long>>, std::less<unsigned long>>::_Rb_tree_impl" = type { [8 x i8], %"struct.std::_Rb_tree_header" }
%"struct.std::_Rb_tree_header" = type { %"struct.std::_Rb_tree_node_base", i64 }
%"struct.std::_Rb_tree_node_base" = type { i32, ptr, ptr, ptr }
%"class.std::vector" = type { %"struct.std::_Vector_base" }
%"struct.std::_Vector_base" = type { %"struct.std::_Vector_base<std::pair<unsigned long, unsigned long>, std::allocator<std::pair<unsigned long, unsigned long>>>::_Vector_impl" }
%"struct.std::_Vector_base<std::pair<unsigned long, unsigned long>, std::allocator<std::pair<unsigned long, unsigned long>>>::_Vector_impl" = type { %"struct.std::_Vector_base<std::pair<unsigned long, unsigned long>, std::allocator<std::pair<unsigned long, unsigned long>>>::_Vector_impl_data" }
%"struct.std::_Vector_base<std::pair<unsigned long, unsigned long>, std::allocator<std::pair<unsigned long, unsigned long>>>::_Vector_impl_data" = type { ptr, ptr, ptr }
%class.memtracer_list_t = type { %class.memtracer_t, %"class.std::vector.3" }
%class.memtracer_t = type { ptr }
%"class.std::vector.3" = type { %"struct.std::_Vector_base.4" }
%"struct.std::_Vector_base.4" = type { %"struct.std::_Vector_base<memtracer_t *, std::allocator<memtracer_t *>>::_Vector_impl" }
%"struct.std::_Vector_base<memtracer_t *, std::allocator<memtracer_t *>>::_Vector_impl" = type { %"struct.std::_Vector_base<memtracer_t *, std::allocator<memtracer_t *>>::_Vector_impl_data" }
%"struct.std::_Vector_base<memtracer_t *, std::allocator<memtracer_t *>>::_Vector_impl_data" = type { ptr, ptr, ptr }
%struct.icache_entry_t = type { i64, ptr, %struct.insn_fetch_t }
%struct.insn_fetch_t = type { ptr, %class.insn_t }
%class.insn_t = type { i64 }
%struct.tlb_entry_t = type { ptr, i64 }
%struct.state_t = type <{ i64, %class.regfile_t, %class.regfile_t.21, %"class.std::unordered_map.22", i64, i64, i8, i8, i8, i8, [4 x i8], %"class.std::shared_ptr", %"class.std::shared_ptr.42", %"class.std::shared_ptr.45", %"class.std::shared_ptr.45", %"class.std::shared_ptr.45", %"class.std::shared_ptr.45", %"class.std::shared_ptr.45", %"class.std::shared_ptr.48", %"class.std::shared_ptr.48", %"class.std::shared_ptr.51", %"class.std::shared_ptr.54", %"class.std::shared_ptr.45", %"class.std::shared_ptr.45", %"class.std::shared_ptr.45", %"class.std::shared_ptr.45", [29 x %"class.std::shared_ptr.45"], %"class.std::shared_ptr.45", %"class.std::shared_ptr.45", %"class.std::shared_ptr.45", %"class.std::shared_ptr.45", %"class.std::shared_ptr.45", %"class.std::shared_ptr.45", %"class.std::shared_ptr.57", %"class.std::shared_ptr.45", %"class.std::shared_ptr.45", %"class.std::shared_ptr.45", %"class.std::shared_ptr.45", %"class.std::shared_ptr.45", %"class.std::shared_ptr.60", %"class.std::shared_ptr.45", %"class.std::shared_ptr.45", %"class.std::shared_ptr.45", %"class.std::shared_ptr.45", %"class.std::shared_ptr.45", %"class.std::shared_ptr.45", %"class.std::shared_ptr.45", %"class.std::shared_ptr.45", %"class.std::shared_ptr.45", %"class.std::shared_ptr.63", %"class.std::shared_ptr.66", %"class.std::shared_ptr.69", %"class.std::shared_ptr.45", %"class.std::shared_ptr.45", %"class.std::shared_ptr.45", %"class.std::shared_ptr.45", %"class.std::shared_ptr.45", %"class.std::shared_ptr.45", %"class.std::shared_ptr.72", %"class.std::shared_ptr.45", %"class.std::shared_ptr.45", %"class.std::shared_ptr.45", %"class.std::shared_ptr.45", %"class.std::shared_ptr.45", %"class.std::shared_ptr.45", i8, [7 x i8], %"class.std::shared_ptr.75", [64 x %"class.std::shared_ptr.78"], %"class.std::shared_ptr.81", %"class.std::shared_ptr.81", %"class.std::shared_ptr.45", %"class.std::shared_ptr.45", %"class.std::shared_ptr.45", [4 x %"class.std::shared_ptr.45"], [4 x %"class.std::shared_ptr.45"], [4 x %"class.std::shared_ptr.45"], %"class.std::shared_ptr.45", %"class.std::shared_ptr.84", %"class.std::shared_ptr.45", %"class.std::shared_ptr.45", %"class.std::shared_ptr.45", %"class.std::shared_ptr.45", i8, [3 x i8], i32, %"class.std::map.87", %"class.std::vector.92", %"class.std::vector.92", i64, i32, i32, i32, i8, [3 x i8] }>
%class.regfile_t = type { [32 x i64] }
%class.regfile_t.21 = type { [32 x %struct.float128_t] }
%struct.float128_t = type { [2 x i64] }
%"class.std::unordered_map.22" = type { %"class.std::_Hashtable.23" }
%"class.std::_Hashtable.23" = type { ptr, i64, %"struct.std::__detail::_Hash_node_base", i64, %"struct.std::__detail::_Prime_rehash_policy", ptr }
%"struct.std::__detail::_Hash_node_base" = type { ptr }
%"struct.std::__detail::_Prime_rehash_policy" = type { float, i64 }
%"class.std::shared_ptr" = type { %"class.std::__shared_ptr" }
%"class.std::__shared_ptr" = type { ptr, %"class.std::__shared_count" }
%"class.std::__shared_count" = type { ptr }
%"class.std::shared_ptr.42" = type { %"class.std::__shared_ptr.43" }
%"class.std::__shared_ptr.43" = type { ptr, %"class.std::__shared_count" }
%"class.std::shared_ptr.48" = type { %"class.std::__shared_ptr.49" }
%"class.std::__shared_ptr.49" = type { ptr, %"class.std::__shared_count" }
%"class.std::shared_ptr.51" = type { %"class.std::__shared_ptr.52" }
%"class.std::__shared_ptr.52" = type { ptr, %"class.std::__shared_count" }
%"class.std::shared_ptr.54" = type { %"class.std::__shared_ptr.55" }
%"class.std::__shared_ptr.55" = type { ptr, %"class.std::__shared_count" }
%"class.std::shared_ptr.57" = type { %"class.std::__shared_ptr.58" }
%"class.std::__shared_ptr.58" = type { ptr, %"class.std::__shared_count" }
%"class.std::shared_ptr.60" = type { %"class.std::__shared_ptr.61" }
%"class.std::__shared_ptr.61" = type { ptr, %"class.std::__shared_count" }
%"class.std::shared_ptr.63" = type { %"class.std::__shared_ptr.64" }
%"class.std::__shared_ptr.64" = type { ptr, %"class.std::__shared_count" }
%"class.std::shared_ptr.66" = type { %"class.std::__shared_ptr.67" }
%"class.std::__shared_ptr.67" = type { ptr, %"class.std::__shared_count" }
%"class.std::shared_ptr.69" = type { %"class.std::__shared_ptr.70" }
%"class.std::__shared_ptr.70" = type { ptr, %"class.std::__shared_count" }
%"class.std::shared_ptr.72" = type { %"class.std::__shared_ptr.73" }
%"class.std::__shared_ptr.73" = type { ptr, %"class.std::__shared_count" }
%"class.std::shared_ptr.75" = type { %"class.std::__shared_ptr.76" }
%"class.std::__shared_ptr.76" = type { ptr, %"class.std::__shared_count" }
%"class.std::shared_ptr.78" = type { %"class.std::__shared_ptr.79" }
%"class.std::__shared_ptr.79" = type { ptr, %"class.std::__shared_count" }
%"class.std::shared_ptr.81" = type { %"class.std::__shared_ptr.82" }
%"class.std::__shared_ptr.82" = type { ptr, %"class.std::__shared_count" }
%"class.std::shared_ptr.84" = type { %"class.std::__shared_ptr.85" }
%"class.std::__shared_ptr.85" = type { ptr, %"class.std::__shared_count" }
%"class.std::shared_ptr.45" = type { %"class.std::__shared_ptr.46" }
%"class.std::__shared_ptr.46" = type { ptr, %"class.std::__shared_count" }
%"class.std::map.87" = type { %"class.std::_Rb_tree.88" }
%"class.std::_Rb_tree.88" = type { %"struct.std::_Rb_tree<unsigned long, std::pair<const unsigned long, float128_t>, std::_Select1st<std::pair<const unsigned long, float128_t>>, std::less<unsigned long>>::_Rb_tree_impl" }
%"struct.std::_Rb_tree<unsigned long, std::pair<const unsigned long, float128_t>, std::_Select1st<std::pair<const unsigned long, float128_t>>, std::less<unsigned long>>::_Rb_tree_impl" = type { [8 x i8], %"struct.std::_Rb_tree_header" }
%"class.std::vector.92" = type { %"struct.std::_Vector_base.93" }
%"struct.std::_Vector_base.93" = type { %"struct.std::_Vector_base<std::tuple<unsigned long, unsigned long, unsigned char>, std::allocator<std::tuple<unsigned long, unsigned long, unsigned char>>>::_Vector_impl" }
%"struct.std::_Vector_base<std::tuple<unsigned long, unsigned long, unsigned char>, std::allocator<std::tuple<unsigned long, unsigned long, unsigned char>>>::_Vector_impl" = type { %"struct.std::_Vector_base<std::tuple<unsigned long, unsigned long, unsigned char>, std::allocator<std::tuple<unsigned long, unsigned long, unsigned char>>>::_Vector_impl_data" }
%"struct.std::_Vector_base<std::tuple<unsigned long, unsigned long, unsigned char>, std::allocator<std::tuple<unsigned long, unsigned long, unsigned char>>>::_Vector_impl_data" = type { ptr, ptr, ptr }
%class.processor_t = type { %class.abstract_device_t, i8, i32, %class.isa_parser_t, ptr, ptr, ptr, %"class.std::unordered_map", ptr, %struct.state_t, i32, i32, i8, i8, ptr, %"class.std::basic_ostream", i8, i8, i8, %"class.std::vector.97", %"class.std::bitset", %"class.std::bitset", %"class.std::bitset", %"class.std::vector.101", %"class.std::vector.101", %"class.std::unordered_map.106", [4095 x %class.opcode_cache_entry_t], i64, i64, i64, %class.entropy_source, i64, i64, %class.vectorUnit_t, %"class.triggers::module_t" }
%class.abstract_device_t = type { ptr }
%class.isa_parser_t = type { i32, i64, i64, i64, i8, i8, %"class.std::bitset", %"class.std::__cxx11::basic_string", %"class.std::set" }
%"class.std::__cxx11::basic_string" = type { %"struct.std::__cxx11::basic_string<char>::_Alloc_hider", i64, %union.anon }
%"struct.std::__cxx11::basic_string<char>::_Alloc_hider" = type { ptr }
%union.anon = type { i64, [8 x i8] }
%"class.std::set" = type { %"class.std::_Rb_tree.11" }
%"class.std::_Rb_tree.11" = type { %"struct.std::_Rb_tree<std::__cxx11::basic_string<char>, std::__cxx11::basic_string<char>, std::_Identity<std::__cxx11::basic_string<char>>, std::less<std::__cxx11::basic_string<char>>>::_Rb_tree_impl" }
%"struct.std::_Rb_tree<std::__cxx11::basic_string<char>, std::__cxx11::basic_string<char>, std::_Identity<std::__cxx11::basic_string<char>>, std::less<std::__cxx11::basic_string<char>>>::_Rb_tree_impl" = type { [8 x i8], %"struct.std::_Rb_tree_header" }
%"class.std::unordered_map" = type { %"class.std::_Hashtable" }
%"class.std::_Hashtable" = type { ptr, i64, %"struct.std::__detail::_Hash_node_base", i64, %"struct.std::__detail::_Prime_rehash_policy", ptr }
%"class.std::basic_ostream" = type { ptr, %"class.std::basic_ios" }
%"class.std::basic_ios" = type { %"class.std::ios_base", ptr, i8, i8, ptr, ptr, ptr, ptr }
%"class.std::ios_base" = type { ptr, i64, i64, i32, i32, i32, ptr, %"struct.std::ios_base::_Words", [8 x %"struct.std::ios_base::_Words"], i32, ptr, %"class.std::locale" }
%"struct.std::ios_base::_Words" = type { ptr, i64 }
%"class.std::locale" = type { ptr }
%"class.std::vector.97" = type { %"struct.std::_Bvector_base" }
%"struct.std::_Bvector_base" = type { %"struct.std::_Bvector_base<std::allocator<bool>>::_Bvector_impl" }
%"struct.std::_Bvector_base<std::allocator<bool>>::_Bvector_impl" = type { %"struct.std::_Bvector_base<std::allocator<bool>>::_Bvector_impl_data" }
%"struct.std::_Bvector_base<std::allocator<bool>>::_Bvector_impl_data" = type { %"struct.std::_Bit_iterator", %"struct.std::_Bit_iterator", ptr }
%"struct.std::_Bit_iterator" = type { %"struct.std::_Bit_iterator_base.base", [4 x i8] }
%"struct.std::_Bit_iterator_base.base" = type <{ ptr, i32 }>
%"class.std::bitset" = type { %"struct.std::_Base_bitset" }
%"struct.std::_Base_bitset" = type { [3 x i64] }
%"class.std::vector.101" = type { %"struct.std::_Vector_base.102" }
%"struct.std::_Vector_base.102" = type { %"struct.std::_Vector_base<insn_desc_t, std::allocator<insn_desc_t>>::_Vector_impl" }
%"struct.std::_Vector_base<insn_desc_t, std::allocator<insn_desc_t>>::_Vector_impl" = type { %"struct.std::_Vector_base<insn_desc_t, std::allocator<insn_desc_t>>::_Vector_impl_data" }
%"struct.std::_Vector_base<insn_desc_t, std::allocator<insn_desc_t>>::_Vector_impl_data" = type { ptr, ptr, ptr }
%"class.std::unordered_map.106" = type { %"class.std::_Hashtable.107" }
%"class.std::_Hashtable.107" = type { ptr, i64, %"struct.std::__detail::_Hash_node_base", i64, %"struct.std::__detail::_Prime_rehash_policy", ptr }
%class.opcode_cache_entry_t = type { [4 x i64], [4 x ptr] }
%class.entropy_source = type { %"class.std::__cxx11::basic_string" }
%class.vectorUnit_t = type <{ ptr, ptr, [32 x i8], i32, [4 x i8], i64, i64, %"class.std::shared_ptr.45", %"class.std::shared_ptr.120", %"class.std::shared_ptr.120", %"class.std::shared_ptr.120", %"class.std::shared_ptr.120", i64, i64, i64, float, [4 x i8], i64, i64, i8, i8, [6 x i8] }>
%"class.std::shared_ptr.120" = type { %"class.std::__shared_ptr.121" }
%"class.std::__shared_ptr.121" = type { ptr, %"class.std::__shared_count" }
%"class.triggers::module_t" = type { ptr, %"class.std::vector.123" }
%"class.std::vector.123" = type { %"struct.std::_Vector_base.124" }
%"struct.std::_Vector_base.124" = type { %"struct.std::_Vector_base<triggers::trigger_t *, std::allocator<triggers::trigger_t *>>::_Vector_impl" }
%"struct.std::_Vector_base<triggers::trigger_t *, std::allocator<triggers::trigger_t *>>::_Vector_impl" = type { %"struct.std::_Vector_base<triggers::trigger_t *, std::allocator<triggers::trigger_t *>>::_Vector_impl_data" }
%"struct.std::_Vector_base<triggers::trigger_t *, std::allocator<triggers::trigger_t *>>::_Vector_impl_data" = type { ptr, ptr, ptr }

; Function Attrs: mustprogress nounwind uwtable
define noundef zeroext i1 @_ZN5mmu_t7mmio_okEm11access_type(ptr noundef nonnull align 8 dereferenceable(43168) %0, i64 noundef %1, i32 noundef %2) #5 align 2 {
  %4 = alloca i1, align 1
  %5 = alloca ptr, align 8
  %6 = alloca i64, align 8
  %7 = alloca i32, align 4
  store ptr %0, ptr %5, align 8, !tbaa !3
  store i64 %1, ptr %6, align 8, !tbaa !57
  store i32 %2, ptr %7, align 4, !tbaa !66
  %8 = load ptr, ptr %5, align 8
  %9 = load i64, ptr %6, align 8, !tbaa !57
  %10 = icmp uge i64 %9, 0
  br i1 %10, label %11, label %26

11:                                               ; preds = %3
  %12 = load i64, ptr %6, align 8, !tbaa !57
  %13 = icmp ule i64 %12, 4095
  br i1 %13, label %14, label %26

14:                                               ; preds = %11
  %15 = getelementptr inbounds nuw %class.mmu_t, ptr %8, i32 0, i32 3
  %16 = load ptr, ptr %15, align 8, !tbaa !41
  %17 = icmp ne ptr %16, null
  br i1 %17, label %18, label %26

18:                                               ; preds = %14
  %19 = getelementptr inbounds nuw %class.mmu_t, ptr %8, i32 0, i32 3
  %20 = load ptr, ptr %19, align 8, !tbaa !41
  %21 = getelementptr inbounds nuw %class.processor_t, ptr %20, i32 0, i32 9
  %22 = getelementptr inbounds nuw %struct.state_t, ptr %21, i32 0, i32 65
  %23 = load i8, ptr %22, align 8, !tbaa !224, !range !68, !noundef !69
  %24 = trunc i8 %23 to i1
  br i1 %24, label %26, label %25

25:                                               ; preds = %18
  store i1 false, ptr %4, align 1
  br label %27

26:                                               ; preds = %18, %14, %11, %3
  store i1 true, ptr %4, align 1
  br label %27

27:                                               ; preds = %26, %25
  %28 = load i1, ptr %4, align 1
  ret i1 %28
}

; Function Attrs: mustprogress uwtable
define noundef zeroext i1 @_ZN5mmu_t4mmioEmmPh11access_type(ptr noundef nonnull align 8 dereferenceable(43168) %0, i64 noundef %1, i64 noundef %2, ptr noundef %3, i32 noundef %4) #4 align 2 {
  %6 = alloca i1, align 1
  %7 = alloca ptr, align 8
  %8 = alloca i64, align 8
  %9 = alloca i64, align 8
  %10 = alloca ptr, align 8
  %11 = alloca i32, align 4
  %12 = alloca i8, align 1
  %13 = alloca i8, align 1
  %14 = alloca i32, align 4
  %15 = alloca i64, align 8
  store ptr %0, ptr %7, align 8, !tbaa !3
  store i64 %1, ptr %8, align 8, !tbaa !57
  store i64 %2, ptr %9, align 8, !tbaa !57
  store ptr %3, ptr %10, align 8, !tbaa !208
  store i32 %4, ptr %11, align 4, !tbaa !66
  %16 = load ptr, ptr %7, align 8
  call void @llvm.lifetime.start.p0(i64 1, ptr %12) #3
  %17 = load i64, ptr %9, align 8, !tbaa !57
  %18 = load i64, ptr %9, align 8, !tbaa !57
  %19 = sub i64 %18, 1
  %20 = and i64 %17, %19
  %21 = icmp eq i64 %20, 0
  %22 = zext i1 %21 to i8
  store i8 %22, ptr %12, align 1, !tbaa !65
  call void @llvm.lifetime.start.p0(i64 1, ptr %13) #3
  %23 = load i64, ptr %8, align 8, !tbaa !57
  %24 = load i64, ptr %9, align 8, !tbaa !57
  %25 = sub i64 %24, 1
  %26 = and i64 %23, %25
  %27 = icmp eq i64 %26, 0
  %28 = zext i1 %27 to i8
  store i8 %28, ptr %13, align 1, !tbaa !65
  %29 = load i8, ptr %12, align 1, !tbaa !65, !range !68, !noundef !69
  %30 = trunc i8 %29 to i1
  br i1 %30, label %31, label %62

31:                                               ; preds = %5
  %32 = load i8, ptr %13, align 1, !tbaa !65, !range !68, !noundef !69
  %33 = trunc i8 %32 to i1
  br i1 %33, label %34, label %62

34:                                               ; preds = %31
  %35 = load i64, ptr %8, align 8, !tbaa !57
  %36 = load i32, ptr %11, align 4, !tbaa !66
  %37 = call noundef zeroext i1 @_ZN5mmu_t7mmio_okEm11access_type(ptr noundef nonnull align 8 dereferenceable(43168) %16, i64 noundef %35, i32 noundef %36)
  br i1 %37, label %39, label %38

38:                                               ; preds = %34
  store i1 false, ptr %6, align 1
  store i32 1, ptr %14, align 4
  br label %85

39:                                               ; preds = %34
  %40 = load i32, ptr %11, align 4, !tbaa !66
  %41 = icmp eq i32 %40, 1
  br i1 %41, label %42, label %52

42:                                               ; preds = %39
  %43 = getelementptr inbounds nuw %class.mmu_t, ptr %16, i32 0, i32 2
  %44 = load ptr, ptr %43, align 8, !tbaa !14
  %45 = load i64, ptr %8, align 8, !tbaa !57
  %46 = load i64, ptr %9, align 8, !tbaa !57
  %47 = load ptr, ptr %10, align 8, !tbaa !208
  %48 = load ptr, ptr %44, align 8, !tbaa !52
  %49 = getelementptr inbounds ptr, ptr %48, i64 4
  %50 = load ptr, ptr %49, align 8
  %51 = call noundef zeroext i1 %50(ptr noundef nonnull align 8 dereferenceable(16) %44, i64 noundef %45, i64 noundef %46, ptr noundef %47)
  store i1 %51, ptr %6, align 1
  store i32 1, ptr %14, align 4
  br label %85

52:                                               ; preds = %39
  %53 = getelementptr inbounds nuw %class.mmu_t, ptr %16, i32 0, i32 2
  %54 = load ptr, ptr %53, align 8, !tbaa !14
  %55 = load i64, ptr %8, align 8, !tbaa !57
  %56 = load i64, ptr %9, align 8, !tbaa !57
  %57 = load ptr, ptr %10, align 8, !tbaa !208
  %58 = load ptr, ptr %54, align 8, !tbaa !52
  %59 = getelementptr inbounds ptr, ptr %58, i64 3
  %60 = load ptr, ptr %59, align 8
  %61 = call noundef zeroext i1 %60(ptr noundef nonnull align 8 dereferenceable(16) %54, i64 noundef %55, i64 noundef %56, ptr noundef %57)
  store i1 %61, ptr %6, align 1
  store i32 1, ptr %14, align 4
  br label %85

62:                                               ; preds = %31, %5
  call void @llvm.lifetime.start.p0(i64 8, ptr %15) #3
  store i64 0, ptr %15, align 8, !tbaa !57
  br label %63

63:                                               ; preds = %79, %62
  %64 = load i64, ptr %15, align 8, !tbaa !57
  %65 = load i64, ptr %9, align 8, !tbaa !57
  %66 = icmp ult i64 %64, %65
  br i1 %66, label %68, label %67

67:                                               ; preds = %63
  store i32 2, ptr %14, align 4
  br label %82

68:                                               ; preds = %63
  %69 = load i64, ptr %8, align 8, !tbaa !57
  %70 = load i64, ptr %15, align 8, !tbaa !57
  %71 = add i64 %69, %70
  %72 = load ptr, ptr %10, align 8, !tbaa !208
  %73 = load i64, ptr %15, align 8, !tbaa !57
  %74 = getelementptr inbounds nuw i8, ptr %72, i64 %73
  %75 = load i32, ptr %11, align 4, !tbaa !66
  %76 = call noundef zeroext i1 @_ZN5mmu_t4mmioEmmPh11access_type(ptr noundef nonnull align 8 dereferenceable(43168) %16, i64 noundef %71, i64 noundef 1, ptr noundef %74, i32 noundef %75)
  br i1 %76, label %78, label %77

77:                                               ; preds = %68
  store i1 false, ptr %6, align 1
  store i32 1, ptr %14, align 4
  br label %82

78:                                               ; preds = %68
  br label %79

79:                                               ; preds = %78
  %80 = load i64, ptr %15, align 8, !tbaa !57
  %81 = add i64 %80, 1
  store i64 %81, ptr %15, align 8, !tbaa !57
  br label %63, !llvm.loop !225

82:                                               ; preds = %77, %67
  call void @llvm.lifetime.end.p0(i64 8, ptr %15) #3
  %83 = load i32, ptr %14, align 4
  switch i32 %83, label %85 [
    i32 2, label %84
  ]

84:                                               ; preds = %82
  store i1 true, ptr %6, align 1
  store i32 1, ptr %14, align 4
  br label %85

85:                                               ; preds = %84, %82, %52, %42, %38
  call void @llvm.lifetime.end.p0(i64 1, ptr %13) #3
  call void @llvm.lifetime.end.p0(i64 1, ptr %12) #3
  %86 = load i1, ptr %6, align 1
  ret i1 %86
}

; Function Attrs: mustprogress uwtable
define noundef zeroext i1 @_ZN5mmu_t10mmio_storeEmmPKh(ptr noundef nonnull align 8 dereferenceable(43168) %0, i64 noundef %1, i64 noundef %2, ptr noundef %3) #4 align 2 {
  %5 = alloca ptr, align 8
  %6 = alloca i64, align 8
  %7 = alloca i64, align 8
  %8 = alloca ptr, align 8
  store ptr %0, ptr %5, align 8, !tbaa !3
  store i64 %1, ptr %6, align 8, !tbaa !57
  store i64 %2, ptr %7, align 8, !tbaa !57
  store ptr %3, ptr %8, align 8, !tbaa !208
  %9 = load ptr, ptr %5, align 8
  %10 = load i64, ptr %6, align 8, !tbaa !57
  %11 = load i64, ptr %7, align 8, !tbaa !57
  %12 = load ptr, ptr %8, align 8, !tbaa !208
  %13 = call noundef zeroext i1 @_ZN5mmu_t4mmioEmmPh11access_type(ptr noundef nonnull align 8 dereferenceable(43168) %9, i64 noundef %10, i64 noundef %11, ptr noundef %12, i32 noundef 1)
  ret i1 %13
}