; Function Attrs: mustprogress uwtable
define noundef zeroext i1 @_ZN5mmu_t10mmio_storeEmmPKh(ptr noundef nonnull readonly align 8 captures(none) dereferenceable(43168) %0, i64 noundef %1, i64 noundef %2, ptr noundef %3) local_unnamed_addr #11 align 2 {
  %5 = tail call range(i64 0, 65) i64 @llvm.ctpop.i64(i64 %2)
  %6 = icmp samesign ult i64 %5, 2
  br i1 %6, label %7, label %.lr.ph.i

7:                                                ; preds = %4
  %8 = add i64 %2, -1
  %9 = and i64 %8, %1
  %10 = icmp eq i64 %9, 0
  br i1 %10, label %11, label %26

11:                                               ; preds = %7
  %12 = icmp ult i64 %1, 4096
  br i1 %12, label %13, label %_ZN5mmu_t7mmio_okEm11access_type.exit.sink.split.i

13:                                               ; preds = %11
  %14 = getelementptr inbounds nuw i8, ptr %0, i64 80
  %15 = load ptr, ptr %14, align 8, !tbaa !39
  %.not.i.i = icmp eq ptr %15, null
  br i1 %.not.i.i, label %_ZN5mmu_t7mmio_okEm11access_type.exit.sink.split.i, label %16

16:                                               ; preds = %13
  %17 = getelementptr inbounds nuw i8, ptr %15, i64 2416
  %18 = load i8, ptr %17, align 8, !tbaa !211, !range !69, !noundef !70
  %19 = trunc nuw i8 %18 to i1
  br i1 %19, label %_ZN5mmu_t7mmio_okEm11access_type.exit.sink.split.i, label %_ZN5mmu_t4mmioEmmPh11access_type.exit

_ZN5mmu_t7mmio_okEm11access_type.exit.sink.split.i: ; preds = %16, %13, %11
  %20 = getelementptr inbounds nuw i8, ptr %0, i64 72
  %21 = load ptr, ptr %20, align 8, !tbaa !15
  %22 = load ptr, ptr %21, align 8, !tbaa !40
  %23 = getelementptr inbounds nuw i8, ptr %22, i64 32
  %24 = load ptr, ptr %23, align 8
  %25 = tail call noundef zeroext i1 %24(ptr noundef nonnull align 8 dereferenceable(16) %21, i64 noundef %1, i64 noundef %2, ptr noundef %3)
  br label %_ZN5mmu_t4mmioEmmPh11access_type.exit

26:                                               ; preds = %7
  %.not32.i = icmp eq i64 %2, 0
  br i1 %.not32.i, label %_ZN5mmu_t4mmioEmmPh11access_type.exit, label %.lr.ph.i

.lr.ph.i:                                         ; preds = %26, %4
  %27 = getelementptr inbounds nuw i8, ptr %0, i64 80
  %28 = getelementptr inbounds nuw i8, ptr %0, i64 72
  br label %.lr.ph.split.us.i

.lr.ph.split.us.i:                                ; preds = %44, %.lr.ph.i
  %.033.us.i = phi i64 [ %45, %44 ], [ 0, %.lr.ph.i ]
  %29 = add i64 %.033.us.i, %1
  %30 = getelementptr inbounds nuw i8, ptr %3, i64 %.033.us.i
  %31 = icmp ult i64 %29, 4096
  br i1 %31, label %32, label %38

32:                                               ; preds = %.lr.ph.split.us.i
  %33 = load ptr, ptr %27, align 8, !tbaa !39
  %.not.i.i.us.i = icmp eq ptr %33, null
  br i1 %.not.i.i.us.i, label %38, label %34

34:                                               ; preds = %32
  %35 = getelementptr inbounds nuw i8, ptr %33, i64 2416
  %36 = load i8, ptr %35, align 8, !tbaa !211, !range !69, !noundef !70
  %37 = trunc nuw i8 %36 to i1
  br i1 %37, label %38, label %_ZN5mmu_t4mmioEmmPh11access_type.exit

38:                                               ; preds = %34, %32, %.lr.ph.split.us.i
  %39 = load ptr, ptr %28, align 8, !tbaa !15
  %40 = load ptr, ptr %39, align 8, !tbaa !40
  %41 = getelementptr inbounds nuw i8, ptr %40, i64 32
  %42 = load ptr, ptr %41, align 8
  %43 = tail call noundef zeroext i1 %42(ptr noundef nonnull align 8 dereferenceable(16) %39, i64 noundef %29, i64 noundef 1, ptr noundef %30)
  br i1 %43, label %44, label %_ZN5mmu_t4mmioEmmPh11access_type.exit

44:                                               ; preds = %38
  %45 = add nuw i64 %.033.us.i, 1
  %exitcond43.not.i = icmp eq i64 %45, %2
  br i1 %exitcond43.not.i, label %_ZN5mmu_t4mmioEmmPh11access_type.exit, label %.lr.ph.split.us.i, !llvm.loop !229

_ZN5mmu_t4mmioEmmPh11access_type.exit:            ; preds = %34, %38, %44, %16, %_ZN5mmu_t7mmio_okEm11access_type.exit.sink.split.i, %26
  %.026.i = phi i1 [ false, %16 ], [ true, %26 ], [ %25, %_ZN5mmu_t7mmio_okEm11access_type.exit.sink.split.i ], [ true, %44 ], [ false, %38 ], [ false, %34 ]
  ret i1 %.026.i
}